; Function Attrs: mustprogress uwtable
define void @_ZNK6google8protobuf10TextFormat7Printer23PrintFieldValueToStringERKNS0_7MessageEPKNS0_15FieldDescriptorEiPNSt7__cxx1112basic_stringIcSt11char_traitsIcESaIcEEE(ptr noundef nonnull align 8 dereferenceable(112) %this, ptr noundef nonnull align 8 dereferenceable(16) %message, ptr noundef %field, i32 noundef %index, ptr noundef nonnull %output) local_unnamed_addr #4 align 2 personality ptr @__gxx_personality_v0 {
entry:
  %output_stream = alloca %"class.google::protobuf::io::StringOutputStream", align 8
  %generator = alloca %"class.google::protobuf::TextFormat::Printer::TextGenerator", align 8
  tail call void @_ZNSt7__cxx1112basic_stringIcSt11char_traitsIcESaIcEE5clearEv(ptr noundef nonnull align 8 dereferenceable(32) %output) #34
  call void @_ZN6google8protobuf2io18StringOutputStreamC1EPNSt7__cxx1112basic_stringIcSt11char_traitsIcESaIcEEE(ptr noundef nonnull align 8 dereferenceable(16) %output_stream, ptr noundef nonnull %output)
  %0 = load i32, ptr %this, align 8
  store ptr getelementptr inbounds ({ [10 x ptr] }, ptr @_ZTVN6google8protobuf10TextFormat7Printer13TextGeneratorE, i64 0, i32 0, i64 2), ptr %generator, align 8
  %output_.i = getelementptr inbounds i8, ptr %generator, i64 8
  store ptr %output_stream, ptr %output_.i, align 8
  %buffer_.i = getelementptr inbounds i8, ptr %generator, i64 16
  store ptr null, ptr %buffer_.i, align 8
  %buffer_size_.i = getelementptr inbounds i8, ptr %generator, i64 24
  store i32 0, ptr %buffer_size_.i, align 8
  %at_start_of_line_.i = getelementptr inbounds i8, ptr %generator, i64 28
  store i8 1, ptr %at_start_of_line_.i, align 4
  %failed_.i = getelementptr inbounds i8, ptr %generator, i64 29
  store i8 0, ptr %failed_.i, align 1
  %insert_silent_marker_.i = getelementptr inbounds i8, ptr %generator, i64 30
  store i8 0, ptr %insert_silent_marker_.i, align 2
  %indent_level_.i = getelementptr inbounds i8, ptr %generator, i64 32
  store i32 %0, ptr %indent_level_.i, align 8
  %initial_indent_level_.i = getelementptr inbounds i8, ptr %generator, i64 36
  store i32 %0, ptr %initial_indent_level_.i, align 4
  %vtable.i = load ptr, ptr %message, align 8
  %vfn.i = getelementptr inbounds i8, ptr %vtable.i, i64 80
  %1 = load ptr, ptr %vfn.i, align 8
  %call.i3 = invoke { ptr, ptr } %1(ptr noundef nonnull align 8 dereferenceable(16) %message)
          to label %invoke.cont3 unwind label %lpad2

invoke.cont3:                                     ; preds = %entry
  %2 = extractvalue { ptr, ptr } %call.i3, 1
  invoke void @_ZNK6google8protobuf10TextFormat7Printer15PrintFieldValueERKNS0_7MessageEPKNS0_10ReflectionEPKNS0_15FieldDescriptorEiPNS1_17BaseTextGeneratorE(ptr noundef nonnull align 8 dereferenceable(112) %this, ptr noundef nonnull align 8 dereferenceable(16) %message, ptr noundef %2, ptr noundef %field, i32 noundef %index, ptr noundef nonnull %generator)
          to label %invoke.cont4 unwind label %lpad2

invoke.cont4:                                     ; preds = %invoke.cont3
  store ptr getelementptr inbounds ({ [10 x ptr] }, ptr @_ZTVN6google8protobuf10TextFormat7Printer13TextGeneratorE, i64 0, i32 0, i64 2), ptr %generator, align 8
  %3 = load i8, ptr %failed_.i, align 1
  %4 = and i8 %3, 1
  %tobool.not.i = icmp eq i8 %4, 0
  br i1 %tobool.not.i, label %if.then.i, label %_ZN6google8protobuf10TextFormat7Printer13TextGeneratorD2Ev.exit

if.then.i:                                        ; preds = %invoke.cont4
  %5 = load ptr, ptr %output_.i, align 8
  %6 = load i32, ptr %buffer_size_.i, align 8
  %vtable.i7 = load ptr, ptr %5, align 8
  %vfn.i8 = getelementptr inbounds i8, ptr %vtable.i7, i64 24
  %7 = load ptr, ptr %vfn.i8, align 8
  invoke void %7(ptr noundef nonnull align 8 dereferenceable(8) %5, i32 noundef %6)
          to label %_ZN6google8protobuf10TextFormat7Printer13TextGeneratorD2Ev.exit unwind label %terminate.lpad.i

terminate.lpad.i:                                 ; preds = %if.then.i
  %8 = landingpad { ptr, i32 }
          catch ptr null
  %9 = extractvalue { ptr, i32 } %8, 0
  call void @__clang_call_terminate(ptr %9) #36
  unreachable

_ZN6google8protobuf10TextFormat7Printer13TextGeneratorD2Ev.exit: ; preds = %invoke.cont4, %if.then.i
  ret void

lpad2:                                            ; preds = %entry, %invoke.cont3
  %10 = landingpad { ptr, i32 }
          cleanup
  call void @_ZN6google8protobuf10TextFormat7Printer13TextGeneratorD2Ev(ptr noundef nonnull align 8 dereferenceable(40) %generator) #34
  resume { ptr, i32 } %10
}